; Function Attrs: mustprogress uwtable
define void @_ZN5folly4json9serializeB5cxx11ERKNS_7dynamicERKNS0_18serialization_optsE(ptr dead_on_unwind noalias writable sret(%"class.std::__cxx11::basic_string") align 8 %0, ptr noundef nonnull align 8 dereferenceable(40) %1, ptr noundef nonnull align 16 dereferenceable(120) %2) local_unnamed_addr #3 personality ptr @__gxx_personality_v0 {
  %4 = alloca i32, align 4
  %5 = alloca %"struct.folly::json::(anonymous namespace)::Printer", align 8
  %6 = getelementptr inbounds nuw i8, ptr %0, i64 16
  store ptr %6, ptr %0, align 8, !tbaa !12
  %7 = getelementptr inbounds nuw i8, ptr %0, i64 8
  store i64 0, ptr %7, align 8, !tbaa !16
  store i8 0, ptr %6, align 8, !tbaa !7
  call void @llvm.lifetime.start.p0(i64 4, ptr nonnull %4) #31
  store i32 0, ptr %4, align 4, !tbaa !18
  call void @llvm.lifetime.start.p0(i64 24, ptr nonnull %5) #31
  %8 = getelementptr inbounds nuw i8, ptr %2, i64 3
  %9 = load i8, ptr %8, align 1, !tbaa !20, !range !27, !noundef !28
  %10 = trunc nuw i8 %9 to i1
  %. = select i1 %10, ptr %4, ptr null
  store ptr %0, ptr %5, align 8, !tbaa !29
  %11 = getelementptr inbounds nuw i8, ptr %5, i64 8
  store ptr %., ptr %11, align 8, !tbaa !31
  %12 = getelementptr inbounds nuw i8, ptr %5, i64 16
  store ptr %2, ptr %12, align 8, !tbaa !35
  invoke fastcc void @_ZNK5folly4json12_GLOBAL__N_17PrinterclERKNS_7dynamicEPKNS2_7ContextE(ptr noundef nonnull align 8 dereferenceable(24) %5, ptr noundef nonnull align 8 dereferenceable(40) %1, ptr noundef null)
          to label %13 unwind label %14

13:                                               ; preds = %3
  call void @llvm.lifetime.end.p0(i64 24, ptr nonnull %5) #31
  call void @llvm.lifetime.end.p0(i64 4, ptr nonnull %4) #31
  ret void

14:                                               ; preds = %3
  %15 = landingpad { ptr, i32 }
          cleanup
  call void @llvm.lifetime.end.p0(i64 24, ptr nonnull %5) #31
  call void @llvm.lifetime.end.p0(i64 4, ptr nonnull %4) #31
  %16 = load ptr, ptr %0, align 8, !tbaa !36
  %17 = icmp eq ptr %16, %6
  br i1 %17, label %_ZNKSt7__cxx1112basic_stringIcSt11char_traitsIcESaIcEE11_M_is_localEv.exit.thread.i.i, label %_ZNKSt7__cxx1112basic_stringIcSt11char_traitsIcESaIcEE11_M_is_localEv.exit.i.i

_ZNKSt7__cxx1112basic_stringIcSt11char_traitsIcESaIcEE11_M_is_localEv.exit.thread.i.i: ; preds = %14
  %18 = load i64, ptr %7, align 8, !tbaa !16
  %19 = icmp ult i64 %18, 16
  call void @llvm.assume(i1 %19)
  br label %_ZNSt7__cxx1112basic_stringIcSt11char_traitsIcESaIcEED2Ev.exit

_ZNKSt7__cxx1112basic_stringIcSt11char_traitsIcESaIcEE11_M_is_localEv.exit.i.i: ; preds = %14
  %20 = load i64, ptr %6, align 8, !tbaa !7
  %21 = add i64 %20, 1
  call void @_ZdlPvm(ptr noundef %16, i64 noundef %21) #32
  br label %_ZNSt7__cxx1112basic_stringIcSt11char_traitsIcESaIcEED2Ev.exit

_ZNSt7__cxx1112basic_stringIcSt11char_traitsIcESaIcEED2Ev.exit: ; preds = %_ZNKSt7__cxx1112basic_stringIcSt11char_traitsIcESaIcEE11_M_is_localEv.exit.thread.i.i, %_ZNKSt7__cxx1112basic_stringIcSt11char_traitsIcESaIcEE11_M_is_localEv.exit.i.i
  resume { ptr, i32 } %15
}